target datalayout = "e-m:e-p270:32:32-p271:32:32-p272:64:64-i64:64-i128:128-f80:128-n8:16:32:64-S128"
target triple = "x86_64-pc-linux-gnu"

@.str.15 = private unnamed_addr constant [10 x i8] c"wrapper.c\00", align 1
@.str.16 = private unnamed_addr constant [30 x i8] c"unexpected git_fsync(%d) call\00", align 1

; Function Attrs: nounwind uwtable
define internal i32 @fsync_loop(i32 noundef %0) #0 {
  %2 = alloca i32, align 4
  %3 = alloca i32, align 4
  store i32 %0, ptr %2, align 4, !tbaa !11
  call void @llvm.lifetime.start.p0(i64 4, ptr %3) #13
  br label %4

4:                                                ; preds = %14, %1
  %5 = load i32, ptr %2, align 4, !tbaa !11
  %6 = call i32 @fsync(i32 noundef %5)
  store i32 %6, ptr %3, align 4, !tbaa !11
  br label %7

7:                                                ; preds = %4
  %8 = load i32, ptr %3, align 4, !tbaa !11
  %9 = icmp slt i32 %8, 0
  br i1 %9, label %10, label %14

10:                                               ; preds = %7
  %11 = call ptr @__errno_location() #19
  %12 = load i32, ptr %11, align 4, !tbaa !11
  %13 = icmp eq i32 %12, 4
  br label %14

14:                                               ; preds = %10, %7
  %15 = phi i1 [ false, %7 ], [ %13, %10 ]
  br i1 %15, label %4, label %16, !llvm.loop !29

16:                                               ; preds = %14
  %17 = load i32, ptr %3, align 4, !tbaa !11
  call void @llvm.lifetime.end.p0(i64 4, ptr %3) #13
  ret i32 %17
}

; Function Attrs: nounwind uwtable
define dso_local i32 @git_fsync(i32 noundef %0, i32 noundef %1) #0 {
  %3 = alloca i32, align 4
  %4 = alloca i32, align 4
  %5 = alloca i32, align 4
  store i32 %0, ptr %4, align 4, !tbaa !11
  store i32 %1, ptr %5, align 4, !tbaa !11
  %6 = load i32, ptr %5, align 4, !tbaa !11
  switch i32 %6, label %13 [
    i32 0, label %7
    i32 1, label %10
  ]

7:                                                ; preds = %2
  call void @trace2_counter_add(i32 noundef 4, i64 noundef 1)
  %8 = load i32, ptr %4, align 4, !tbaa !11
  %9 = call i32 @sync_file_range(i32 noundef %8, i64 noundef 0, i64 noundef 0, i32 noundef 7)
  store i32 %9, ptr %3, align 4
  br label %15

10:                                               ; preds = %2
  call void @trace2_counter_add(i32 noundef 5, i64 noundef 1)
  %11 = load i32, ptr %4, align 4, !tbaa !11
  %12 = call i32 @fsync_loop(i32 noundef %11)
  store i32 %12, ptr %3, align 4
  br label %15

13:                                               ; preds = %2
  %14 = load i32, ptr %5, align 4, !tbaa !11
  call void (ptr, i32, ptr, ...) @BUG_fl(ptr noundef @.str.15, i32 noundef 597, ptr noundef @.str.16, i32 noundef %14) #14
  unreachable

15:                                               ; preds = %10, %7
  %16 = load i32, ptr %3, align 4
  ret i32 %16
}