; Function Attrs: nounwind uwtable
define dso_local i32 @git_fsync(i32 noundef %0, i32 noundef %1) local_unnamed_addr #0 {
  switch i32 %1, label %13 [
    i32 0, label %3
    i32 1, label %5
  ]

3:                                                ; preds = %2
  tail call void @trace2_counter_add(i32 noundef 4, i64 noundef 1) #20
  %4 = tail call i32 @sync_file_range(i32 noundef %0, i64 noundef 0, i64 noundef 0, i32 noundef 7) #20
  br label %fsync_loop.exit

5:                                                ; preds = %2
  tail call void @trace2_counter_add(i32 noundef 5, i64 noundef 1) #20
  br label %6

6:                                                ; preds = %9, %5
  %7 = tail call i32 @fsync(i32 noundef %0) #20
  %8 = icmp slt i32 %7, 0
  br i1 %8, label %9, label %fsync_loop.exit

9:                                                ; preds = %6
  %10 = tail call ptr @__errno_location() #26
  %11 = load i32, ptr %10, align 4, !tbaa !9
  %12 = icmp eq i32 %11, 4
  br i1 %12, label %6, label %fsync_loop.exit, !llvm.loop !22

13:                                               ; preds = %2
  tail call void (ptr, i32, ptr, ...) @BUG_fl(ptr noundef nonnull @.str.15, i32 noundef 597, ptr noundef nonnull @.str.16, i32 noundef %1) #21
  unreachable

fsync_loop.exit:                                  ; preds = %9, %6, %3
  %.0 = phi i32 [ %4, %3 ], [ %7, %6 ], [ %7, %9 ]
  ret i32 %.0
}